target datalayout = "e-m:e-p270:32:32-p271:32:32-p272:64:64-i64:64-i128:128-f80:128-n8:16:32:64-S128"
target triple = "x86_64-pc-linux-gnu"

%"struct.cv::utils::trace::details::Region::LocationStaticStorage" = type { ptr, ptr, ptr, i32, i32 }
%"class.cv::utils::trace::details::Region" = type <{ ptr, i32, [4 x i8] }>
%"class.std::__cxx11::basic_string" = type { %"struct.std::__cxx11::basic_string<char>::_Alloc_hider", i64, %union.anon }
%"struct.std::__cxx11::basic_string<char>::_Alloc_hider" = type { ptr }
%union.anon = type { i64, [8 x i8] }

@.str.1 = private unnamed_addr constant [126 x i8] c"generated/home/dtcxzyw/WorkSpace/Projects/compilers/llvm-opt-benchmark/bench/opencv/opencv/modules/core/src/matrix_decomp.cpp\00", align 1
@_ZZN2cv3hal11Cholesky32fEPfmiS1_miE25__cv_trace_location_fn175 = internal constant %"struct.cv::utils::trace::details::Region::LocationStaticStorage" { ptr @_ZZN2cv3hal11Cholesky32fEPfmiS1_miE31__cv_trace_location_extra_fn175, ptr @.str.5, ptr @.str.1, i32 175, i32 1 }, align 8
@.str.6 = private unnamed_addr constant [75 x i8] c"HAL implementation Cholesky32f ==> hal_ni_Cholesky32f returned %d (0x%08x)\00", align 1
@__func__._ZN2cv3hal11Cholesky32fEPfmiS1_mi = private unnamed_addr constant [12 x i8] c"Cholesky32f\00", align 1

; Function Attrs: mustprogress nounwind uwtable
define linkonce_odr hidden void @_ZNSt15__new_allocatorIcE10deallocateEPcm(ptr noundef nonnull align 1 dereferenceable(1) %0, ptr noundef %1, i64 noundef %2) #5 comdat align 2 {
  %4 = alloca ptr, align 8
  %5 = alloca ptr, align 8
  %6 = alloca i64, align 8
  store ptr %0, ptr %4, align 8, !tbaa !111
  store ptr %1, ptr %5, align 8, !tbaa !118
  store i64 %2, ptr %6, align 8, !tbaa !8
  %7 = load ptr, ptr %5, align 8, !tbaa !118
  call void @_ZdlPv(ptr noundef %7) #15
  ret void
}

; Function Attrs: mustprogress nounwind uwtable
define linkonce_odr hidden noundef ptr @_ZNSt19__ptr_traits_ptr_toIPKcS0_Lb0EE10pointer_toERS0_(ptr noundef nonnull align 1 dereferenceable(1) %0) #5 comdat align 2 {
  %2 = alloca ptr, align 8
  store ptr %0, ptr %2, align 8, !tbaa !118
  %3 = load ptr, ptr %2, align 8, !tbaa !118
  ret ptr %3
}

; Function Attrs: mustprogress uwtable
define linkonce_odr hidden void @_ZNSt16allocator_traitsISaIcEE10deallocateERS0_Pcm(ptr noundef nonnull align 1 dereferenceable(1) %0, ptr noundef %1, i64 noundef %2) #0 comdat align 2 {
  %4 = alloca ptr, align 8
  %5 = alloca ptr, align 8
  %6 = alloca i64, align 8
  store ptr %0, ptr %4, align 8, !tbaa !119
  store ptr %1, ptr %5, align 8, !tbaa !118
  store i64 %2, ptr %6, align 8, !tbaa !8
  %7 = load ptr, ptr %4, align 8, !tbaa !119
  %8 = load ptr, ptr %5, align 8, !tbaa !118
  %9 = load i64, ptr %6, align 8, !tbaa !8
  call void @_ZNSt15__new_allocatorIcE10deallocateEPcm(ptr noundef nonnull align 1 dereferenceable(1) %7, ptr noundef %8, i64 noundef %9)
  ret void
}

; Function Attrs: mustprogress nounwind uwtable
define available_externally noundef nonnull align 1 dereferenceable(1) ptr @_ZNSt7__cxx1112basic_stringIcSt11char_traitsIcESaIcEE16_M_get_allocatorEv(ptr noundef nonnull align 8 dereferenceable(32) %0) #5 align 2 {
  %2 = alloca ptr, align 8
  store ptr %0, ptr %2, align 8, !tbaa !14
  %3 = load ptr, ptr %2, align 8
  %4 = getelementptr inbounds nuw %"class.std::__cxx11::basic_string", ptr %3, i32 0, i32 0
  ret ptr %4
}

; Function Attrs: mustprogress nounwind uwtable
define available_externally noundef ptr @_ZNKSt7__cxx1112basic_stringIcSt11char_traitsIcESaIcEE13_M_local_dataEv(ptr noundef nonnull align 8 dereferenceable(32) %0) #5 align 2 {
  %2 = alloca ptr, align 8
  store ptr %0, ptr %2, align 8, !tbaa !14
  %3 = load ptr, ptr %2, align 8
  %4 = getelementptr inbounds nuw %"class.std::__cxx11::basic_string", ptr %3, i32 0, i32 2
  %5 = getelementptr inbounds [16 x i8], ptr %4, i64 0, i64 0
  %6 = call noundef ptr @_ZNSt19__ptr_traits_ptr_toIPKcS0_Lb0EE10pointer_toERS0_(ptr noundef nonnull align 1 dereferenceable(1) %5) #12
  ret ptr %6
}

; Function Attrs: mustprogress nounwind uwtable
define available_externally noundef ptr @_ZNKSt7__cxx1112basic_stringIcSt11char_traitsIcESaIcEE7_M_dataEv(ptr noundef nonnull align 8 dereferenceable(32) %0) #5 align 2 {
  %2 = alloca ptr, align 8
  store ptr %0, ptr %2, align 8, !tbaa !14
  %3 = load ptr, ptr %2, align 8
  %4 = getelementptr inbounds nuw %"class.std::__cxx11::basic_string", ptr %3, i32 0, i32 0
  %5 = getelementptr inbounds nuw %"struct.std::__cxx11::basic_string<char>::_Alloc_hider", ptr %4, i32 0, i32 0
  %6 = load ptr, ptr %5, align 8, !tbaa !117
  ret ptr %6
}

; Function Attrs: mustprogress nounwind uwtable
define available_externally void @_ZNSt7__cxx1112basic_stringIcSt11char_traitsIcESaIcEE10_M_destroyEm(ptr noundef nonnull align 8 dereferenceable(32) %0, i64 noundef %1) #5 align 2 personality ptr @__gxx_personality_v0 {
  %3 = alloca ptr, align 8
  %4 = alloca i64, align 8
  %5 = alloca ptr, align 8
  %6 = alloca i32, align 4
  store ptr %0, ptr %3, align 8, !tbaa !14
  store i64 %1, ptr %4, align 8, !tbaa !8
  %7 = load ptr, ptr %3, align 8
  %8 = invoke noundef nonnull align 1 dereferenceable(1) ptr @_ZNSt7__cxx1112basic_stringIcSt11char_traitsIcESaIcEE16_M_get_allocatorEv(ptr noundef nonnull align 8 dereferenceable(32) %7)
          to label %9 unwind label %14

9:                                                ; preds = %2
  %10 = call noundef ptr @_ZNKSt7__cxx1112basic_stringIcSt11char_traitsIcESaIcEE7_M_dataEv(ptr noundef nonnull align 8 dereferenceable(32) %7)
  %11 = load i64, ptr %4, align 8, !tbaa !8
  %12 = add i64 %11, 1
  invoke void @_ZNSt16allocator_traitsISaIcEE10deallocateERS0_Pcm(ptr noundef nonnull align 1 dereferenceable(1) %8, ptr noundef %10, i64 noundef %12)
          to label %13 unwind label %14

13:                                               ; preds = %9
  ret void

14:                                               ; preds = %9, %2
  %15 = landingpad { ptr, i32 }
          filter [0 x ptr] zeroinitializer
  %16 = extractvalue { ptr, i32 } %15, 0
  store ptr %16, ptr %5, align 8
  %17 = extractvalue { ptr, i32 } %15, 1
  store i32 %17, ptr %6, align 4
  br label %18

18:                                               ; preds = %14
  %19 = load ptr, ptr %5, align 8
  call void @__cxa_call_unexpected(ptr %19) #13
  unreachable
}

; Function Attrs: mustprogress uwtable
define available_externally noundef zeroext i1 @_ZNKSt7__cxx1112basic_stringIcSt11char_traitsIcESaIcEE11_M_is_localEv(ptr noundef nonnull align 8 dereferenceable(32) %0) #0 align 2 {
  %2 = alloca i1, align 1
  %3 = alloca ptr, align 8
  store ptr %0, ptr %3, align 8, !tbaa !14
  %4 = load ptr, ptr %3, align 8
  %5 = call noundef ptr @_ZNKSt7__cxx1112basic_stringIcSt11char_traitsIcESaIcEE7_M_dataEv(ptr noundef nonnull align 8 dereferenceable(32) %4)
  %6 = call noundef ptr @_ZNKSt7__cxx1112basic_stringIcSt11char_traitsIcESaIcEE13_M_local_dataEv(ptr noundef nonnull align 8 dereferenceable(32) %4)
  %7 = icmp eq ptr %5, %6
  br i1 %7, label %8, label %14

8:                                                ; preds = %1
  %9 = getelementptr inbounds nuw %"class.std::__cxx11::basic_string", ptr %4, i32 0, i32 1
  %10 = load i64, ptr %9, align 8, !tbaa !113
  %11 = icmp ugt i64 %10, 15
  br i1 %11, label %12, label %13

12:                                               ; preds = %8
  unreachable

13:                                               ; preds = %8
  store i1 true, ptr %2, align 1
  br label %15

14:                                               ; preds = %1
  store i1 false, ptr %2, align 1
  br label %15

15:                                               ; preds = %14, %13
  %16 = load i1, ptr %2, align 1
  ret i1 %16
}

; Function Attrs: mustprogress nounwind uwtable
define linkonce_odr hidden void @_ZNSt15__new_allocatorIcED2Ev(ptr noundef nonnull align 1 dereferenceable(1) %0) unnamed_addr #5 comdat align 2 {
  %2 = alloca ptr, align 8
  store ptr %0, ptr %2, align 8, !tbaa !111
  ret void
}

; Function Attrs: mustprogress uwtable
define available_externally void @_ZNSt7__cxx1112basic_stringIcSt11char_traitsIcESaIcEE10_M_disposeEv(ptr noundef nonnull align 8 dereferenceable(32) %0) #0 align 2 {
  %2 = alloca ptr, align 8
  store ptr %0, ptr %2, align 8, !tbaa !14
  %3 = load ptr, ptr %2, align 8
  %4 = call noundef zeroext i1 @_ZNKSt7__cxx1112basic_stringIcSt11char_traitsIcESaIcEE11_M_is_localEv(ptr noundef nonnull align 8 dereferenceable(32) %3)
  br i1 %4, label %8, label %5

5:                                                ; preds = %1
  %6 = getelementptr inbounds nuw %"class.std::__cxx11::basic_string", ptr %3, i32 0, i32 2
  %7 = load i64, ptr %6, align 8, !tbaa !110
  call void @_ZNSt7__cxx1112basic_stringIcSt11char_traitsIcESaIcEE10_M_destroyEm(ptr noundef nonnull align 8 dereferenceable(32) %3, i64 noundef %7) #12
  br label %8

8:                                                ; preds = %5, %1
  ret void
}

; Function Attrs: inlinehint mustprogress nounwind uwtable
define linkonce_odr hidden void @_ZN2cv5utils5trace7details6RegionD2Ev(ptr noundef nonnull align 8 dereferenceable(12) %0) unnamed_addr #3 comdat align 2 personality ptr @__gxx_personality_v0 {
  %2 = alloca ptr, align 8
  store ptr %0, ptr %2, align 8, !tbaa !29
  %3 = load ptr, ptr %2, align 8
  %4 = getelementptr inbounds nuw %"class.cv::utils::trace::details::Region", ptr %3, i32 0, i32 1
  %5 = load i32, ptr %4, align 8, !tbaa !31
  %6 = icmp ne i32 %5, 0
  br i1 %6, label %7, label %9

7:                                                ; preds = %1
  invoke void @_ZN2cv5utils5trace7details6Region7destroyEv(ptr noundef nonnull align 8 dereferenceable(12) %3)
          to label %8 unwind label %10

8:                                                ; preds = %7
  br label %9

9:                                                ; preds = %8, %1
  ret void

10:                                               ; preds = %7
  %11 = landingpad { ptr, i32 }
          catch ptr null
  %12 = extractvalue { ptr, i32 } %11, 0
  call void @__clang_call_terminate(ptr %12) #14
  unreachable
}

; Function Attrs: mustprogress nounwind uwtable
define available_externally void @_ZNSt7__cxx1112basic_stringIcSt11char_traitsIcESaIcEED2Ev(ptr noundef nonnull align 8 dereferenceable(32) %0) unnamed_addr #5 align 2 personality ptr @__gxx_personality_v0 {
  %2 = alloca ptr, align 8
  store ptr %0, ptr %2, align 8, !tbaa !14
  %3 = load ptr, ptr %2, align 8
  invoke void @_ZNSt7__cxx1112basic_stringIcSt11char_traitsIcESaIcEE10_M_disposeEv(ptr noundef nonnull align 8 dereferenceable(32) %3)
          to label %4 unwind label %6

4:                                                ; preds = %1
  %5 = getelementptr inbounds nuw %"class.std::__cxx11::basic_string", ptr %3, i32 0, i32 0
  call void @_ZNSt15__new_allocatorIcED2Ev(ptr noundef nonnull align 8 dereferenceable(8) %5) #12
  ret void

6:                                                ; preds = %1
  %7 = landingpad { ptr, i32 }
          catch ptr null
  %8 = extractvalue { ptr, i32 } %7, 0
  call void @__clang_call_terminate(ptr %8) #14
  unreachable
}

; Function Attrs: inlinehint mustprogress nounwind uwtable
define linkonce_odr hidden noundef i32 @_Z18hal_ni_Cholesky32fPfmiS_miPb(ptr noundef %0, i64 noundef %1, i32 noundef %2, ptr noundef %3, i64 noundef %4, i32 noundef %5, ptr noundef %6) #3 comdat {
  %8 = alloca ptr, align 8
  %9 = alloca i64, align 8
  %10 = alloca i32, align 4
  %11 = alloca ptr, align 8
  %12 = alloca i64, align 8
  %13 = alloca i32, align 4
  %14 = alloca ptr, align 8
  store ptr %0, ptr %8, align 8, !tbaa !3
  store i64 %1, ptr %9, align 8, !tbaa !8
  store i32 %2, ptr %10, align 4, !tbaa !10
  store ptr %3, ptr %11, align 8, !tbaa !3
  store i64 %4, ptr %12, align 8, !tbaa !8
  store i32 %5, ptr %13, align 4, !tbaa !10
  store ptr %6, ptr %14, align 8, !tbaa !52
  ret i32 1
}

; Function Attrs: mustprogress uwtable
define noundef zeroext i1 @_ZN2cv3hal11Cholesky32fEPfmiS1_mi(ptr noundef %0, i64 noundef %1, i32 noundef %2, ptr noundef %3, i64 noundef %4, i32 noundef %5) #0 personality ptr @__gxx_personality_v0 {
  %7 = alloca i1, align 1
  %8 = alloca ptr, align 8
  %9 = alloca i64, align 8
  %10 = alloca i32, align 4
  %11 = alloca ptr, align 8
  %12 = alloca i64, align 8
  %13 = alloca i32, align 4
  %14 = alloca %"class.cv::utils::trace::details::Region", align 8
  %15 = alloca i8, align 1
  %16 = alloca i32, align 4
  %17 = alloca ptr, align 8
  %18 = alloca i32, align 4
  %19 = alloca i32, align 4
  %20 = alloca %"class.std::__cxx11::basic_string", align 8
  store ptr %0, ptr %8, align 8, !tbaa !3
  store i64 %1, ptr %9, align 8, !tbaa !8
  store i32 %2, ptr %10, align 4, !tbaa !10
  store ptr %3, ptr %11, align 8, !tbaa !3
  store i64 %4, ptr %12, align 8, !tbaa !8
  store i32 %5, ptr %13, align 4, !tbaa !10
  call void @llvm.lifetime.start.p0(i64 16, ptr %14) #12
  call void @_ZN2cv5utils5trace7details6RegionC1ERKNS3_21LocationStaticStorageE(ptr noundef nonnull align 8 dereferenceable(12) %14, ptr noundef nonnull align 8 dereferenceable(32) @_ZZN2cv3hal11Cholesky32fEPfmiS1_miE25__cv_trace_location_fn175)
  call void @llvm.lifetime.start.p0(i64 1, ptr %15) #12
  call void @llvm.lifetime.start.p0(i64 4, ptr %16) #12
  %21 = load ptr, ptr %8, align 8, !tbaa !3
  %22 = load i64, ptr %9, align 8, !tbaa !8
  %23 = load i32, ptr %10, align 4, !tbaa !10
  %24 = load ptr, ptr %11, align 8, !tbaa !3
  %25 = load i64, ptr %12, align 8, !tbaa !8
  %26 = load i32, ptr %13, align 4, !tbaa !10
  %27 = invoke noundef i32 @_Z18hal_ni_Cholesky32fPfmiS_miPb(ptr noundef %21, i64 noundef %22, i32 noundef %23, ptr noundef %24, i64 noundef %25, i32 noundef %26, ptr noundef %15)
          to label %28 unwind label %34

28:                                               ; preds = %6
  store i32 %27, ptr %16, align 4, !tbaa !10
  %29 = load i32, ptr %16, align 4, !tbaa !10
  %30 = icmp eq i32 %29, 0
  br i1 %30, label %31, label %38

31:                                               ; preds = %28
  %32 = load i8, ptr %15, align 1, !tbaa !48, !range !50, !noundef !51
  %33 = trunc i8 %32 to i1
  store i1 %33, ptr %7, align 1
  store i32 1, ptr %19, align 4
  br label %57

34:                                               ; preds = %6
  %35 = landingpad { ptr, i32 }
          cleanup
  %36 = extractvalue { ptr, i32 } %35, 0
  store ptr %36, ptr %17, align 8
  %37 = extractvalue { ptr, i32 } %35, 1
  store i32 %37, ptr %18, align 4
  br label %68

38:                                               ; preds = %28
  %39 = load i32, ptr %16, align 4, !tbaa !10
  %40 = icmp ne i32 %39, 1
  br i1 %40, label %41, label %55

41:                                               ; preds = %38
  call void @llvm.lifetime.start.p0(i64 32, ptr %20) #12
  %42 = load i32, ptr %16, align 4, !tbaa !10
  %43 = load i32, ptr %16, align 4, !tbaa !10
  invoke void (ptr, ptr, ...) @_ZN2cv6formatB5cxx11EPKcz(ptr dead_on_unwind writable sret(%"class.std::__cxx11::basic_string") align 8 %20, ptr noundef @.str.6, i32 noundef %42, i32 noundef %43)
          to label %44 unwind label %46

44:                                               ; preds = %41
  invoke void @_ZN2cv5errorEiRKNSt7__cxx1112basic_stringIcSt11char_traitsIcESaIcEEEPKcS9_i(i32 noundef -3, ptr noundef nonnull align 8 dereferenceable(32) %20, ptr noundef @__func__._ZN2cv3hal11Cholesky32fEPfmiS1_mi, ptr noundef @.str.1, i32 noundef 178) #13
          to label %45 unwind label %50

45:                                               ; preds = %44
  unreachable

46:                                               ; preds = %41
  %47 = landingpad { ptr, i32 }
          cleanup
  %48 = extractvalue { ptr, i32 } %47, 0
  store ptr %48, ptr %17, align 8
  %49 = extractvalue { ptr, i32 } %47, 1
  store i32 %49, ptr %18, align 4
  br label %54

50:                                               ; preds = %44
  %51 = landingpad { ptr, i32 }
          cleanup
  %52 = extractvalue { ptr, i32 } %51, 0
  store ptr %52, ptr %17, align 8
  %53 = extractvalue { ptr, i32 } %51, 1
  store i32 %53, ptr %18, align 4
  call void @_ZNSt7__cxx1112basic_stringIcSt11char_traitsIcESaIcEED2Ev(ptr noundef nonnull align 8 dereferenceable(32) %20) #12
  br label %54

54:                                               ; preds = %50, %46
  call void @llvm.lifetime.end.p0(i64 32, ptr %20) #12
  br label %68

55:                                               ; preds = %38
  br label %56

56:                                               ; preds = %55
  store i32 0, ptr %19, align 4
  br label %57

57:                                               ; preds = %56, %31
  call void @llvm.lifetime.end.p0(i64 4, ptr %16) #12
  %58 = load i32, ptr %19, align 4
  switch i32 %58, label %73 [
    i32 0, label %59
  ]

59:                                               ; preds = %57
  %60 = load ptr, ptr %8, align 8, !tbaa !3
  %61 = load i64, ptr %9, align 8, !tbaa !8
  %62 = load i32, ptr %10, align 4, !tbaa !10
  %63 = load ptr, ptr %11, align 8, !tbaa !3
  %64 = load i64, ptr %12, align 8, !tbaa !8
  %65 = load i32, ptr %13, align 4, !tbaa !10
  %66 = invoke noundef zeroext i1 @_ZN2cv3halL8CholImplIfEEbPT_miS3_mi(ptr noundef %60, i64 noundef %61, i32 noundef %62, ptr noundef %63, i64 noundef %64, i32 noundef %65)
          to label %67 unwind label %69

67:                                               ; preds = %59
  store i1 %66, ptr %7, align 1
  store i32 1, ptr %19, align 4
  br label %73

68:                                               ; preds = %54, %34
  call void @llvm.lifetime.end.p0(i64 4, ptr %16) #12
  br label %75

69:                                               ; preds = %59
  %70 = landingpad { ptr, i32 }
          cleanup
  %71 = extractvalue { ptr, i32 } %70, 0
  store ptr %71, ptr %17, align 8
  %72 = extractvalue { ptr, i32 } %70, 1
  store i32 %72, ptr %18, align 4
  br label %75

73:                                               ; preds = %67, %57
  call void @llvm.lifetime.end.p0(i64 1, ptr %15) #12
  call void @_ZN2cv5utils5trace7details6RegionD2Ev(ptr noundef nonnull align 8 dereferenceable(12) %14) #12
  call void @llvm.lifetime.end.p0(i64 16, ptr %14) #12
  %74 = load i1, ptr %7, align 1
  ret i1 %74

75:                                               ; preds = %69, %68
  call void @llvm.lifetime.end.p0(i64 1, ptr %15) #12
  call void @_ZN2cv5utils5trace7details6RegionD2Ev(ptr noundef nonnull align 8 dereferenceable(12) %14) #12
  call void @llvm.lifetime.end.p0(i64 16, ptr %14) #12
  br label %76

76:                                               ; preds = %75
  %77 = load ptr, ptr %17, align 8
  %78 = load i32, ptr %18, align 4
  %79 = insertvalue { ptr, i32 } poison, ptr %77, 0
  %80 = insertvalue { ptr, i32 } %79, i32 %78, 1
  resume { ptr, i32 } %80
}